; Function Attrs: inlinehint mustprogress nounwind uwtable
define internal fastcc void @_ZN9grpc_core12_GLOBAL__N_110RbacConfig10RbacPolicy5Rules6Policy10PermissionD2Ev(ptr noundef nonnull align 8 captures(none) dereferenceable(8) %0) unnamed_addr #8 align 2 personality ptr @__gxx_personality_v0 {
  %2 = load ptr, ptr %0, align 8, !tbaa !140
  %.not.i = icmp eq ptr %2, null
  br i1 %.not.i, label %_ZNSt10unique_ptrIN9grpc_core4Rbac10PermissionESt14default_deleteIS2_EED2Ev.exit, label %_ZNKSt14default_deleteIN9grpc_core4Rbac10PermissionEEclEPS2_.exit.i

_ZNKSt14default_deleteIN9grpc_core4Rbac10PermissionEEclEPS2_.exit.i: ; preds = %1
  tail call void @_ZN9grpc_core4Rbac10PermissionD2Ev(ptr noundef nonnull align 8 dereferenceable(257) %2) #26
  tail call void @_ZdlPvm(ptr noundef nonnull %2, i64 noundef 264) #30
  br label %_ZNSt10unique_ptrIN9grpc_core4Rbac10PermissionESt14default_deleteIS2_EED2Ev.exit

_ZNSt10unique_ptrIN9grpc_core4Rbac10PermissionESt14default_deleteIS2_EED2Ev.exit: ; preds = %1, %_ZNKSt14default_deleteIN9grpc_core4Rbac10PermissionEEclEPS2_.exit.i
  store ptr null, ptr %0, align 8, !tbaa !140
  ret void
}